target datalayout = "e-m:e-p270:32:32-p271:32:32-p272:64:64-i64:64-i128:128-f80:128-n8:16:32:64-S128"
target triple = "x86_64-pc-linux-gnu"

%struct.string_list = type { ptr, i64, i64, i8, ptr }
%struct.string_list_item = type { ptr, ptr }
%struct.branch_info = type { ptr, %struct.string_list, i32, ptr }
%struct.ref_states = type { ptr, %struct.string_list, %struct.string_list, %struct.string_list, %struct.string_list, %struct.string_list, %struct.string_list, i32 }
%struct.show_info = type { %struct.string_list, %struct.ref_states, i32, i32, i32 }

@git_gettext_enabled = external global i32, align 4
@.str.158 = private unnamed_addr constant [1 x i8] zeroinitializer, align 1
@.str.172 = private unnamed_addr constant [55 x i8] c"invalid branch.%s.merge; cannot rebase onto > 1 branch\00", align 1
@.str.173 = private unnamed_addr constant [10 x i8] c"    %-*s \00", align 1
@.str.174 = private unnamed_addr constant [37 x i8] c"rebases interactively onto remote %s\00", align 1
@.str.175 = private unnamed_addr constant [51 x i8] c"rebases interactively (with merges) onto remote %s\00", align 1
@.str.176 = private unnamed_addr constant [23 x i8] c"rebases onto remote %s\00", align 1
@.str.177 = private unnamed_addr constant [23 x i8] c" merges with remote %s\00", align 1
@.str.178 = private unnamed_addr constant [22 x i8] c"merges with remote %s\00", align 1
@.str.179 = private unnamed_addr constant [28 x i8] c"%-*s    and with remote %s\0A\00", align 1

; Function Attrs: inlinehint nounwind uwtable
define internal i32 @const_error() #4 {
  ret i32 -1
}

; Function Attrs: inlinehint nounwind uwtable
define internal ptr @_(ptr noundef %0) #4 {
  %2 = alloca ptr, align 8
  %3 = alloca ptr, align 8
  store ptr %0, ptr %3, align 8, !tbaa !11
  %4 = load ptr, ptr %3, align 8, !tbaa !11
  %5 = load i8, ptr %4, align 1, !tbaa !125
  %6 = icmp ne i8 %5, 0
  br i1 %6, label %8, label %7

7:                                                ; preds = %1
  store ptr @.str.158, ptr %2, align 8
  br label %16

8:                                                ; preds = %1
  %9 = load i32, ptr @git_gettext_enabled, align 4, !tbaa !4
  %10 = icmp ne i32 %9, 0
  br i1 %10, label %13, label %11

11:                                               ; preds = %8
  %12 = load ptr, ptr %3, align 8, !tbaa !11
  store ptr %12, ptr %2, align 8
  br label %16

13:                                               ; preds = %8
  %14 = load ptr, ptr %3, align 8, !tbaa !11
  %15 = call ptr @dcgettext(ptr noundef null, ptr noundef %14, i32 noundef 5) #11
  store ptr %15, ptr %2, align 8
  br label %16

16:                                               ; preds = %13, %11, %7
  %17 = load ptr, ptr %2, align 8
  ret ptr %17
}

; Function Attrs: nounwind uwtable
define internal i32 @show_local_info_item(ptr noundef %0, ptr noundef %1) #0 {
  %3 = alloca i32, align 4
  %4 = alloca ptr, align 8
  %5 = alloca ptr, align 8
  %6 = alloca ptr, align 8
  %7 = alloca ptr, align 8
  %8 = alloca ptr, align 8
  %9 = alloca i32, align 4
  %10 = alloca i32, align 4
  %11 = alloca i32, align 4
  %12 = alloca ptr, align 8
  store ptr %0, ptr %4, align 8, !tbaa !62
  store ptr %1, ptr %5, align 8, !tbaa !15
  call void @llvm.lifetime.start.p0(i64 8, ptr %6) #11
  %13 = load ptr, ptr %5, align 8, !tbaa !15
  store ptr %13, ptr %6, align 8, !tbaa !203
  call void @llvm.lifetime.start.p0(i64 8, ptr %7) #11
  %14 = load ptr, ptr %4, align 8, !tbaa !62
  %15 = getelementptr inbounds nuw %struct.string_list_item, ptr %14, i32 0, i32 1
  %16 = load ptr, ptr %15, align 8, !tbaa !63
  store ptr %16, ptr %7, align 8, !tbaa !64
  call void @llvm.lifetime.start.p0(i64 8, ptr %8) #11
  %17 = load ptr, ptr %7, align 8, !tbaa !64
  %18 = getelementptr inbounds nuw %struct.branch_info, ptr %17, i32 0, i32 1
  store ptr %18, ptr %8, align 8, !tbaa !206
  call void @llvm.lifetime.start.p0(i64 4, ptr %9) #11
  %19 = load ptr, ptr %6, align 8, !tbaa !203
  %20 = getelementptr inbounds nuw %struct.show_info, ptr %19, i32 0, i32 2
  %21 = load i32, ptr %20, align 8, !tbaa !113
  %22 = add nsw i32 %21, 4
  store i32 %22, ptr %9, align 4, !tbaa !4
  call void @llvm.lifetime.start.p0(i64 4, ptr %10) #11
  %23 = load ptr, ptr %7, align 8, !tbaa !64
  %24 = getelementptr inbounds nuw %struct.branch_info, ptr %23, i32 0, i32 2
  %25 = load i32, ptr %24, align 8, !tbaa !156
  %26 = icmp sge i32 %25, 1
  br i1 %26, label %27, label %40

27:                                               ; preds = %2
  %28 = load ptr, ptr %7, align 8, !tbaa !64
  %29 = getelementptr inbounds nuw %struct.branch_info, ptr %28, i32 0, i32 1
  %30 = getelementptr inbounds nuw %struct.string_list, ptr %29, i32 0, i32 1
  %31 = load i64, ptr %30, align 8, !tbaa !205
  %32 = icmp ugt i64 %31, 1
  br i1 %32, label %33, label %40

33:                                               ; preds = %27
  %34 = call ptr @_(ptr noundef @.str.172)
  %35 = load ptr, ptr %4, align 8, !tbaa !62
  %36 = getelementptr inbounds nuw %struct.string_list_item, ptr %35, i32 0, i32 0
  %37 = load ptr, ptr %36, align 8, !tbaa !38
  %38 = call i32 (ptr, ...) @error(ptr noundef %34, ptr noundef %37)
  %39 = call i32 @const_error()
  store i32 0, ptr %3, align 4
  store i32 1, ptr %11, align 4
  br label %128

40:                                               ; preds = %27, %2
  %41 = load ptr, ptr %6, align 8, !tbaa !203
  %42 = getelementptr inbounds nuw %struct.show_info, ptr %41, i32 0, i32 2
  %43 = load i32, ptr %42, align 8, !tbaa !113
  %44 = load ptr, ptr %4, align 8, !tbaa !62
  %45 = getelementptr inbounds nuw %struct.string_list_item, ptr %44, i32 0, i32 0
  %46 = load ptr, ptr %45, align 8, !tbaa !38
  %47 = call i32 (ptr, ...) @printf(ptr noundef @.str.173, i32 noundef %43, ptr noundef %46)
  %48 = load ptr, ptr %7, align 8, !tbaa !64
  %49 = getelementptr inbounds nuw %struct.branch_info, ptr %48, i32 0, i32 2
  %50 = load i32, ptr %49, align 8, !tbaa !156
  %51 = icmp sge i32 %50, 1
  br i1 %51, label %52, label %78

52:                                               ; preds = %40
  call void @llvm.lifetime.start.p0(i64 8, ptr %12) #11
  %53 = load ptr, ptr %7, align 8, !tbaa !64
  %54 = getelementptr inbounds nuw %struct.branch_info, ptr %53, i32 0, i32 2
  %55 = load i32, ptr %54, align 8, !tbaa !156
  %56 = icmp eq i32 %55, 3
  br i1 %56, label %57, label %59

57:                                               ; preds = %52
  %58 = call ptr @_(ptr noundef @.str.174)
  store ptr %58, ptr %12, align 8, !tbaa !11
  br label %69

59:                                               ; preds = %52
  %60 = load ptr, ptr %7, align 8, !tbaa !64
  %61 = getelementptr inbounds nuw %struct.branch_info, ptr %60, i32 0, i32 2
  %62 = load i32, ptr %61, align 8, !tbaa !156
  %63 = icmp eq i32 %62, 2
  br i1 %63, label %64, label %66

64:                                               ; preds = %59
  %65 = call ptr @_(ptr noundef @.str.175)
  store ptr %65, ptr %12, align 8, !tbaa !11
  br label %68

66:                                               ; preds = %59
  %67 = call ptr @_(ptr noundef @.str.176)
  store ptr %67, ptr %12, align 8, !tbaa !11
  br label %68

68:                                               ; preds = %66, %64
  br label %69

69:                                               ; preds = %68, %57
  %70 = load ptr, ptr %12, align 8, !tbaa !11
  %71 = load ptr, ptr %8, align 8, !tbaa !206
  %72 = getelementptr inbounds nuw %struct.string_list, ptr %71, i32 0, i32 0
  %73 = load ptr, ptr %72, align 8, !tbaa !37
  %74 = getelementptr inbounds %struct.string_list_item, ptr %73, i64 0
  %75 = getelementptr inbounds nuw %struct.string_list_item, ptr %74, i32 0, i32 0
  %76 = load ptr, ptr %75, align 8, !tbaa !38
  %77 = call i32 (ptr, ...) @printf_ln(ptr noundef %70, ptr noundef %76)
  store i32 0, ptr %3, align 4
  store i32 1, ptr %11, align 4
  call void @llvm.lifetime.end.p0(i64 8, ptr %12) #11
  br label %128

78:                                               ; preds = %40
  %79 = load ptr, ptr %6, align 8, !tbaa !203
  %80 = getelementptr inbounds nuw %struct.show_info, ptr %79, i32 0, i32 4
  %81 = load i32, ptr %80, align 8, !tbaa !115
  %82 = icmp ne i32 %81, 0
  br i1 %82, label %83, label %94

83:                                               ; preds = %78
  %84 = call ptr @_(ptr noundef @.str.177)
  %85 = load ptr, ptr %8, align 8, !tbaa !206
  %86 = getelementptr inbounds nuw %struct.string_list, ptr %85, i32 0, i32 0
  %87 = load ptr, ptr %86, align 8, !tbaa !37
  %88 = getelementptr inbounds %struct.string_list_item, ptr %87, i64 0
  %89 = getelementptr inbounds nuw %struct.string_list_item, ptr %88, i32 0, i32 0
  %90 = load ptr, ptr %89, align 8, !tbaa !38
  %91 = call i32 (ptr, ...) @printf_ln(ptr noundef %84, ptr noundef %90)
  %92 = load i32, ptr %9, align 4, !tbaa !4
  %93 = add nsw i32 %92, 1
  store i32 %93, ptr %9, align 4, !tbaa !4
  br label %103

94:                                               ; preds = %78
  %95 = call ptr @_(ptr noundef @.str.178)
  %96 = load ptr, ptr %8, align 8, !tbaa !206
  %97 = getelementptr inbounds nuw %struct.string_list, ptr %96, i32 0, i32 0
  %98 = load ptr, ptr %97, align 8, !tbaa !37
  %99 = getelementptr inbounds %struct.string_list_item, ptr %98, i64 0
  %100 = getelementptr inbounds nuw %struct.string_list_item, ptr %99, i32 0, i32 0
  %101 = load ptr, ptr %100, align 8, !tbaa !38
  %102 = call i32 (ptr, ...) @printf_ln(ptr noundef %95, ptr noundef %101)
  br label %103

103:                                              ; preds = %94, %83
  br label %104

104:                                              ; preds = %103
  store i32 1, ptr %10, align 4, !tbaa !4
  br label %105

105:                                              ; preds = %124, %104
  %106 = load i32, ptr %10, align 4, !tbaa !4
  %107 = sext i32 %106 to i64
  %108 = load ptr, ptr %8, align 8, !tbaa !206
  %109 = getelementptr inbounds nuw %struct.string_list, ptr %108, i32 0, i32 1
  %110 = load i64, ptr %109, align 8, !tbaa !30
  %111 = icmp ult i64 %107, %110
  br i1 %111, label %112, label %127

112:                                              ; preds = %105
  %113 = call ptr @_(ptr noundef @.str.179)
  %114 = load i32, ptr %9, align 4, !tbaa !4
  %115 = load ptr, ptr %8, align 8, !tbaa !206
  %116 = getelementptr inbounds nuw %struct.string_list, ptr %115, i32 0, i32 0
  %117 = load ptr, ptr %116, align 8, !tbaa !37
  %118 = load i32, ptr %10, align 4, !tbaa !4
  %119 = sext i32 %118 to i64
  %120 = getelementptr inbounds %struct.string_list_item, ptr %117, i64 %119
  %121 = getelementptr inbounds nuw %struct.string_list_item, ptr %120, i32 0, i32 0
  %122 = load ptr, ptr %121, align 8, !tbaa !38
  %123 = call i32 (ptr, ...) @printf(ptr noundef %113, i32 noundef %114, ptr noundef @.str.158, ptr noundef %122)
  br label %124

124:                                              ; preds = %112
  %125 = load i32, ptr %10, align 4, !tbaa !4
  %126 = add nsw i32 %125, 1
  store i32 %126, ptr %10, align 4, !tbaa !4
  br label %105, !llvm.loop !207

127:                                              ; preds = %105
  store i32 0, ptr %3, align 4
  store i32 1, ptr %11, align 4
  br label %128

128:                                              ; preds = %127, %69, %33
  call void @llvm.lifetime.end.p0(i64 4, ptr %10) #11
  call void @llvm.lifetime.end.p0(i64 4, ptr %9) #11
  call void @llvm.lifetime.end.p0(i64 8, ptr %8) #11
  call void @llvm.lifetime.end.p0(i64 8, ptr %7) #11
  call void @llvm.lifetime.end.p0(i64 8, ptr %6) #11
  %129 = load i32, ptr %3, align 4
  ret i32 %129
}