; Function Attrs: nounwind uwtable
define internal noundef i32 @show_local_info_item(ptr noundef readonly captures(none) %0, ptr noundef readonly captures(none) %1) #0 {
  %3 = getelementptr inbounds nuw i8, ptr %0, i64 8
  %4 = load ptr, ptr %3, align 8, !tbaa !67
  %5 = getelementptr inbounds nuw i8, ptr %4, i64 8
  %6 = getelementptr inbounds nuw i8, ptr %1, i64 296
  %7 = load i32, ptr %6, align 8, !tbaa !112
  %8 = add nsw i32 %7, 4
  %9 = getelementptr inbounds nuw i8, ptr %4, i64 48
  %10 = load i32, ptr %9, align 8, !tbaa !134
  %11 = icmp sgt i32 %10, 0
  br i1 %11, label %12, label %22

12:                                               ; preds = %2
  %13 = getelementptr inbounds nuw i8, ptr %4, i64 16
  %14 = load i64, ptr %13, align 8, !tbaa !164
  %15 = icmp ugt i64 %14, 1
  br i1 %15, label %16, label %22

16:                                               ; preds = %12
  %17 = load i32, ptr @git_gettext_enabled, align 4, !tbaa !21
  %.not4.i = icmp eq i32 %17, 0
  br i1 %.not4.i, label %_.exit, label %18

18:                                               ; preds = %16
  %19 = tail call ptr @dcgettext(ptr noundef null, ptr noundef nonnull @.str.172, i32 noundef 5) #19
  br label %_.exit

_.exit:                                           ; preds = %16, %18
  %.0.i = phi ptr [ %19, %18 ], [ @.str.172, %16 ]
  %20 = load ptr, ptr %0, align 8, !tbaa !34
  %21 = tail call i32 (ptr, ...) @error(ptr noundef %.0.i, ptr noundef %20) #19
  br label %.loopexit

22:                                               ; preds = %12, %2
  %23 = load ptr, ptr %0, align 8, !tbaa !34
  %24 = tail call i32 (ptr, ...) @printf(ptr noundef nonnull dereferenceable(1) @.str.173, i32 noundef %7, ptr noundef %23)
  %25 = load i32, ptr %9, align 8, !tbaa !134
  %26 = icmp sgt i32 %25, 0
  br i1 %26, label %27, label %36

27:                                               ; preds = %22
  %28 = load i32, ptr @git_gettext_enabled, align 4, !tbaa !21
  %.not4.i35 = icmp eq i32 %28, 0
  switch i32 %25, label %31 [
    i32 3, label %29
    i32 2, label %30
  ]

29:                                               ; preds = %27
  br i1 %.not4.i35, label %_.exit31, label %_.exit31.sink.split

30:                                               ; preds = %27
  br i1 %.not4.i35, label %_.exit31, label %_.exit31.sink.split

31:                                               ; preds = %27
  br i1 %.not4.i35, label %_.exit31, label %_.exit31.sink.split

_.exit31.sink.split:                              ; preds = %31, %30, %29
  %.str.176.sink = phi ptr [ @.str.174, %29 ], [ @.str.175, %30 ], [ @.str.176, %31 ]
  %32 = tail call ptr @dcgettext(ptr noundef null, ptr noundef nonnull %.str.176.sink, i32 noundef 5) #19
  br label %_.exit31

_.exit31:                                         ; preds = %_.exit31.sink.split, %31, %30, %29
  %.0 = phi ptr [ @.str.174, %29 ], [ @.str.175, %30 ], [ @.str.176, %31 ], [ %32, %_.exit31.sink.split ]
  %33 = load ptr, ptr %5, align 8, !tbaa !33
  %34 = load ptr, ptr %33, align 8, !tbaa !34
  %35 = tail call i32 (ptr, ...) @printf_ln(ptr noundef %.0, ptr noundef %34) #19
  br label %.loopexit

36:                                               ; preds = %22
  %37 = getelementptr inbounds nuw i8, ptr %1, i64 304
  %38 = load i32, ptr %37, align 8, !tbaa !114
  %.not = icmp eq i32 %38, 0
  %39 = load i32, ptr @git_gettext_enabled, align 4, !tbaa !21
  %.not4.i41 = icmp eq i32 %39, 0
  br i1 %.not, label %47, label %40

40:                                               ; preds = %36
  br i1 %.not4.i41, label %_.exit40, label %41

41:                                               ; preds = %40
  %42 = tail call ptr @dcgettext(ptr noundef null, ptr noundef nonnull @.str.177, i32 noundef 5) #19
  br label %_.exit40

_.exit40:                                         ; preds = %40, %41
  %.0.i39 = phi ptr [ %42, %41 ], [ @.str.177, %40 ]
  %43 = load ptr, ptr %5, align 8, !tbaa !33
  %44 = load ptr, ptr %43, align 8, !tbaa !34
  %45 = tail call i32 (ptr, ...) @printf_ln(ptr noundef %.0.i39, ptr noundef %44) #19
  %46 = add nsw i32 %7, 5
  br label %53

47:                                               ; preds = %36
  br i1 %.not4.i41, label %_.exit43, label %48

48:                                               ; preds = %47
  %49 = tail call ptr @dcgettext(ptr noundef null, ptr noundef nonnull @.str.178, i32 noundef 5) #19
  br label %_.exit43

_.exit43:                                         ; preds = %47, %48
  %.0.i42 = phi ptr [ %49, %48 ], [ @.str.178, %47 ]
  %50 = load ptr, ptr %5, align 8, !tbaa !33
  %51 = load ptr, ptr %50, align 8, !tbaa !34
  %52 = tail call i32 (ptr, ...) @printf_ln(ptr noundef %.0.i42, ptr noundef %51) #19
  br label %53

53:                                               ; preds = %_.exit40, %_.exit43
  %.025 = phi i32 [ %46, %_.exit40 ], [ %8, %_.exit43 ]
  %54 = getelementptr inbounds nuw i8, ptr %4, i64 16
  %55 = load i64, ptr %54, align 8, !tbaa !30
  %56 = icmp ugt i64 %55, 1
  br i1 %56, label %.lr.ph, label %.loopexit

.lr.ph:                                           ; preds = %53, %_.exit46
  %indvars.iv = phi i64 [ %indvars.iv.next, %_.exit46 ], [ 1, %53 ]
  %57 = load i32, ptr @git_gettext_enabled, align 4, !tbaa !21
  %.not4.i44 = icmp eq i32 %57, 0
  br i1 %.not4.i44, label %_.exit46, label %58

58:                                               ; preds = %.lr.ph
  %59 = tail call ptr @dcgettext(ptr noundef null, ptr noundef nonnull @.str.179, i32 noundef 5) #19
  br label %_.exit46

_.exit46:                                         ; preds = %.lr.ph, %58
  %.0.i45 = phi ptr [ %59, %58 ], [ @.str.179, %.lr.ph ]
  %60 = load ptr, ptr %5, align 8, !tbaa !33
  %61 = getelementptr inbounds nuw %struct.string_list_item, ptr %60, i64 %indvars.iv
  %62 = load ptr, ptr %61, align 8, !tbaa !34
  %63 = tail call i32 (ptr, ...) @printf(ptr noundef nonnull dereferenceable(1) %.0.i45, i32 noundef %.025, ptr noundef nonnull @.str.158, ptr noundef %62)
  %indvars.iv.next = add nuw nsw i64 %indvars.iv, 1
  %64 = load i64, ptr %54, align 8, !tbaa !30
  %65 = icmp ugt i64 %64, %indvars.iv.next
  br i1 %65, label %.lr.ph, label %.loopexit, !llvm.loop !165

.loopexit:                                        ; preds = %_.exit46, %53, %_.exit31, %_.exit
  ret i32 0
}